target datalayout = "e-m:e-p270:32:32-p271:32:32-p272:64:64-i64:64-i128:128-f80:128-n8:16:32:64-S128"
target triple = "x86_64-pc-linux-gnu"

%"class.std::basic_ostream" = type { ptr, %"class.std::basic_ios" }
%"class.std::basic_ios" = type { %"class.std::ios_base", ptr, i8, i8, ptr, ptr, ptr, ptr }
%"class.std::ios_base" = type { ptr, i64, i64, i32, i32, i32, ptr, %"struct.std::ios_base::_Words", [8 x %"struct.std::ios_base::_Words"], i32, ptr, %"class.std::locale" }
%"struct.std::ios_base::_Words" = type { ptr, i64 }
%"class.std::locale" = type { ptr }
%"class.cv::bioinspired::RetinaColor" = type <{ ptr, %"class.cv::bioinspired::BasicRetinaFilter", i32, i8, [3 x i8], float, [4 x i8], ptr, ptr, %"class.std::valarray.0", %"class.std::valarray", %"class.std::valarray", %"class.std::valarray", %"class.std::valarray", %"class.std::valarray", %"class.std::valarray", %"class.std::valarray", float, float, float, i8, [3 x i8] }>
%"class.cv::bioinspired::BasicRetinaFilter" = type { %"class.cv::bioinspired::TemplateBuffer", %"class.std::valarray", i32, i32, %"class.std::valarray", %"class.std::valarray", %"class.std::valarray", float, float, float, float, float, float, float, float }
%"class.cv::bioinspired::TemplateBuffer" = type { ptr, %"class.std::valarray", i64, i64, i64, i64, i64 }
%"class.std::valarray.0" = type { i64, ptr }
%"class.std::valarray" = type { i64, ptr }

@_ZSt4cerr = external global %"class.std::basic_ostream", align 8
@.str.2 = private unnamed_addr constant [57 x i8] c"RetinaColor::No or wrong color sampling method, skeeping\00", align 1

; Function Attrs: inlinehint mustprogress nounwind uwtable
define linkonce_odr noundef i32 @_ZStorSt12_Ios_IostateS_(i32 noundef %0, i32 noundef %1) #7 comdat {
  %3 = alloca i32, align 4
  %4 = alloca i32, align 4
  store i32 %0, ptr %3, align 4, !tbaa !142
  store i32 %1, ptr %4, align 4, !tbaa !142
  %5 = load i32, ptr %3, align 4, !tbaa !142
  %6 = load i32, ptr %4, align 4, !tbaa !142
  %7 = or i32 %5, %6
  ret i32 %7
}

; Function Attrs: mustprogress nounwind uwtable
define available_externally noundef i32 @_ZNKSt9basic_iosIcSt11char_traitsIcEE7rdstateEv(ptr noundef nonnull align 8 dereferenceable(264) %0) #8 align 2 {
  %2 = alloca ptr, align 8
  store ptr %0, ptr %2, align 8, !tbaa !140
  %3 = load ptr, ptr %2, align 8
  %4 = getelementptr inbounds nuw %"class.std::ios_base", ptr %3, i32 0, i32 5
  %5 = load i32, ptr %4, align 8, !tbaa !144
  ret i32 %5
}

; Function Attrs: mustprogress nounwind uwtable
define linkonce_odr hidden noundef i64 @_ZNSt11char_traitsIcE6lengthEPKc(ptr noundef %0) #8 comdat align 2 {
  %2 = alloca ptr, align 8
  store ptr %0, ptr %2, align 8, !tbaa !53
  %3 = load ptr, ptr %2, align 8, !tbaa !53
  %4 = call i64 @strlen(ptr noundef %3) #3
  ret i64 %4
}

; Function Attrs: mustprogress uwtable
define available_externally void @_ZNSt9basic_iosIcSt11char_traitsIcEE8setstateESt12_Ios_Iostate(ptr noundef nonnull align 8 dereferenceable(264) %0, i32 noundef %1) #4 align 2 {
  %3 = alloca ptr, align 8
  %4 = alloca i32, align 4
  store ptr %0, ptr %3, align 8, !tbaa !140
  store i32 %1, ptr %4, align 4, !tbaa !142
  %5 = load ptr, ptr %3, align 8
  %6 = call noundef i32 @_ZNKSt9basic_iosIcSt11char_traitsIcEE7rdstateEv(ptr noundef nonnull align 8 dereferenceable(264) %5)
  %7 = load i32, ptr %4, align 4, !tbaa !142
  %8 = call noundef i32 @_ZStorSt12_Ios_IostateS_(i32 noundef %6, i32 noundef %7)
  call void @_ZNSt9basic_iosIcSt11char_traitsIcEE5clearESt12_Ios_Iostate(ptr noundef nonnull align 8 dereferenceable(264) %5, i32 noundef %8)
  ret void
}

; Function Attrs: inlinehint mustprogress nounwind uwtable
define linkonce_odr hidden noundef i32 @_ZN2cv11bioinspired14TemplateBufferIfE12getNBcolumnsEv(ptr noundef nonnull align 8 dereferenceable(64) %0) #7 comdat align 2 {
  %2 = alloca ptr, align 8
  store ptr %0, ptr %2, align 8, !tbaa !56
  %3 = load ptr, ptr %2, align 8
  %4 = getelementptr inbounds nuw %"class.cv::bioinspired::TemplateBuffer", ptr %3, i32 0, i32 3
  %5 = load i64, ptr %4, align 8, !tbaa !57
  %6 = trunc i64 %5 to i32
  ret i32 %6
}

; Function Attrs: inlinehint mustprogress nounwind uwtable
define linkonce_odr hidden noundef i32 @_ZN2cv11bioinspired14TemplateBufferIfE9getNBrowsEv(ptr noundef nonnull align 8 dereferenceable(64) %0) #7 comdat align 2 {
  %2 = alloca ptr, align 8
  store ptr %0, ptr %2, align 8, !tbaa !56
  %3 = load ptr, ptr %2, align 8
  %4 = getelementptr inbounds nuw %"class.cv::bioinspired::TemplateBuffer", ptr %3, i32 0, i32 2
  %5 = load i64, ptr %4, align 8, !tbaa !73
  %6 = trunc i64 %5 to i32
  ret i32 %6
}

; Function Attrs: mustprogress uwtable
define available_externally noundef nonnull align 8 dereferenceable(8) ptr @_ZNSolsEPFRSoS_E(ptr noundef nonnull align 8 dereferenceable(8) %0, ptr noundef %1) #4 align 2 {
  %3 = alloca ptr, align 8
  %4 = alloca ptr, align 8
  store ptr %0, ptr %3, align 8, !tbaa !51
  store ptr %1, ptr %4, align 8, !tbaa !55
  %5 = load ptr, ptr %3, align 8
  %6 = load ptr, ptr %4, align 8, !tbaa !55
  %7 = call noundef nonnull align 8 dereferenceable(8) ptr %6(ptr noundef nonnull align 8 dereferenceable(8) %5)
  ret ptr %7
}

; Function Attrs: inlinehint mustprogress uwtable
define available_externally noundef nonnull align 8 dereferenceable(8) ptr @_ZStlsISt11char_traitsIcEERSt13basic_ostreamIcT_ES5_PKc(ptr noundef nonnull align 8 dereferenceable(8) %0, ptr noundef %1) #5 {
  %3 = alloca ptr, align 8
  %4 = alloca ptr, align 8
  store ptr %0, ptr %3, align 8, !tbaa !51
  store ptr %1, ptr %4, align 8, !tbaa !53
  %5 = load ptr, ptr %4, align 8, !tbaa !53
  %6 = icmp ne ptr %5, null
  br i1 %6, label %13, label %7

7:                                                ; preds = %2
  %8 = load ptr, ptr %3, align 8, !tbaa !51
  %9 = load ptr, ptr %8, align 8, !tbaa !10
  %10 = getelementptr i8, ptr %9, i64 -24
  %11 = load i64, ptr %10, align 8
  %12 = getelementptr inbounds i8, ptr %8, i64 %11
  call void @_ZNSt9basic_iosIcSt11char_traitsIcEE8setstateESt12_Ios_Iostate(ptr noundef nonnull align 8 dereferenceable(264) %12, i32 noundef 1)
  br label %19

13:                                               ; preds = %2
  %14 = load ptr, ptr %3, align 8, !tbaa !51
  %15 = load ptr, ptr %4, align 8, !tbaa !53
  %16 = load ptr, ptr %4, align 8, !tbaa !53
  %17 = call noundef i64 @_ZNSt11char_traitsIcE6lengthEPKc(ptr noundef %16)
  %18 = call noundef nonnull align 8 dereferenceable(8) ptr @_ZSt16__ostream_insertIcSt11char_traitsIcEERSt13basic_ostreamIT_T0_ES6_PKS3_l(ptr noundef nonnull align 8 dereferenceable(8) %14, ptr noundef %15, i64 noundef %17)
  br label %19

19:                                               ; preds = %13, %7
  %20 = load ptr, ptr %3, align 8, !tbaa !51
  ret ptr %20
}

; Function Attrs: mustprogress uwtable
define hidden void @_ZN2cv11bioinspired11RetinaColor33_interpolateSingleChannelImage111EPf(ptr noundef nonnull align 8 dereferenceable(349) %0, ptr noundef %1) #4 align 2 {
  %3 = alloca ptr, align 8
  %4 = alloca ptr, align 8
  %5 = alloca i32, align 4
  %6 = alloca i32, align 4
  %7 = alloca i32, align 4
  %8 = alloca i32, align 4
  %9 = alloca i32, align 4
  %10 = alloca i32, align 4
  %11 = alloca i32, align 4
  store ptr %0, ptr %3, align 8, !tbaa !3
  store ptr %1, ptr %4, align 8, !tbaa !39
  %12 = load ptr, ptr %3, align 8
  call void @llvm.lifetime.start.p0(i64 4, ptr %5) #3
  store i32 0, ptr %5, align 4, !tbaa !8
  br label %13

13:                                               ; preds = %65, %2
  %14 = load i32, ptr %5, align 4, !tbaa !8
  %15 = getelementptr inbounds i8, ptr %12, i64 8
  %16 = getelementptr inbounds nuw %"class.cv::bioinspired::BasicRetinaFilter", ptr %15, i32 0, i32 0
  %17 = call noundef i32 @_ZN2cv11bioinspired14TemplateBufferIfE9getNBrowsEv(ptr noundef nonnull align 8 dereferenceable(64) %16)
  %18 = icmp ult i32 %14, %17
  br i1 %18, label %20, label %19

19:                                               ; preds = %13
  store i32 2, ptr %6, align 4
  call void @llvm.lifetime.end.p0(i64 4, ptr %5) #3
  br label %68

20:                                               ; preds = %13
  call void @llvm.lifetime.start.p0(i64 4, ptr %7) #3
  store i32 1, ptr %7, align 4, !tbaa !8
  br label %21

21:                                               ; preds = %61, %20
  %22 = load i32, ptr %7, align 4, !tbaa !8
  %23 = getelementptr inbounds i8, ptr %12, i64 8
  %24 = getelementptr inbounds nuw %"class.cv::bioinspired::BasicRetinaFilter", ptr %23, i32 0, i32 0
  %25 = call noundef i32 @_ZN2cv11bioinspired14TemplateBufferIfE12getNBcolumnsEv(ptr noundef nonnull align 8 dereferenceable(64) %24)
  %26 = sub i32 %25, 1
  %27 = icmp ult i32 %22, %26
  br i1 %27, label %29, label %28

28:                                               ; preds = %21
  store i32 5, ptr %6, align 4
  call void @llvm.lifetime.end.p0(i64 4, ptr %7) #3
  br label %64

29:                                               ; preds = %21
  call void @llvm.lifetime.start.p0(i64 4, ptr %8) #3
  %30 = load i32, ptr %7, align 4, !tbaa !8
  %31 = load i32, ptr %5, align 4, !tbaa !8
  %32 = getelementptr inbounds i8, ptr %12, i64 8
  %33 = getelementptr inbounds nuw %"class.cv::bioinspired::BasicRetinaFilter", ptr %32, i32 0, i32 0
  %34 = call noundef i32 @_ZN2cv11bioinspired14TemplateBufferIfE12getNBcolumnsEv(ptr noundef nonnull align 8 dereferenceable(64) %33)
  %35 = mul i32 %31, %34
  %36 = add i32 %30, %35
  store i32 %36, ptr %8, align 4, !tbaa !8
  %37 = load ptr, ptr %4, align 8, !tbaa !39
  %38 = load i32, ptr %8, align 4, !tbaa !8
  %39 = sub i32 %38, 1
  %40 = zext i32 %39 to i64
  %41 = getelementptr inbounds nuw float, ptr %37, i64 %40
  %42 = load float, ptr %41, align 4, !tbaa !30
  %43 = load ptr, ptr %4, align 8, !tbaa !39
  %44 = load i32, ptr %8, align 4, !tbaa !8
  %45 = zext i32 %44 to i64
  %46 = getelementptr inbounds nuw float, ptr %43, i64 %45
  %47 = load float, ptr %46, align 4, !tbaa !30
  %48 = fadd float %42, %47
  %49 = load ptr, ptr %4, align 8, !tbaa !39
  %50 = load i32, ptr %8, align 4, !tbaa !8
  %51 = add i32 %50, 1
  %52 = zext i32 %51 to i64
  %53 = getelementptr inbounds nuw float, ptr %49, i64 %52
  %54 = load float, ptr %53, align 4, !tbaa !30
  %55 = fadd float %48, %54
  %56 = fdiv float %55, 3.000000e+00
  %57 = load ptr, ptr %4, align 8, !tbaa !39
  %58 = load i32, ptr %8, align 4, !tbaa !8
  %59 = zext i32 %58 to i64
  %60 = getelementptr inbounds nuw float, ptr %57, i64 %59
  store float %56, ptr %60, align 4, !tbaa !30
  call void @llvm.lifetime.end.p0(i64 4, ptr %8) #3
  br label %61

61:                                               ; preds = %29
  %62 = load i32, ptr %7, align 4, !tbaa !8
  %63 = add i32 %62, 1
  store i32 %63, ptr %7, align 4, !tbaa !8
  br label %21, !llvm.loop !99

64:                                               ; preds = %28
  br label %65

65:                                               ; preds = %64
  %66 = load i32, ptr %5, align 4, !tbaa !8
  %67 = add i32 %66, 1
  store i32 %67, ptr %5, align 4, !tbaa !8
  br label %13, !llvm.loop !100

68:                                               ; preds = %19
  call void @llvm.lifetime.start.p0(i64 4, ptr %9) #3
  store i32 0, ptr %9, align 4, !tbaa !8
  br label %69

69:                                               ; preds = %127, %68
  %70 = load i32, ptr %9, align 4, !tbaa !8
  %71 = getelementptr inbounds i8, ptr %12, i64 8
  %72 = getelementptr inbounds nuw %"class.cv::bioinspired::BasicRetinaFilter", ptr %71, i32 0, i32 0
  %73 = call noundef i32 @_ZN2cv11bioinspired14TemplateBufferIfE12getNBcolumnsEv(ptr noundef nonnull align 8 dereferenceable(64) %72)
  %74 = icmp ult i32 %70, %73
  br i1 %74, label %76, label %75

75:                                               ; preds = %69
  store i32 8, ptr %6, align 4
  call void @llvm.lifetime.end.p0(i64 4, ptr %9) #3
  br label %130

76:                                               ; preds = %69
  call void @llvm.lifetime.start.p0(i64 4, ptr %10) #3
  store i32 1, ptr %10, align 4, !tbaa !8
  br label %77

77:                                               ; preds = %123, %76
  %78 = load i32, ptr %10, align 4, !tbaa !8
  %79 = getelementptr inbounds i8, ptr %12, i64 8
  %80 = getelementptr inbounds nuw %"class.cv::bioinspired::BasicRetinaFilter", ptr %79, i32 0, i32 0
  %81 = call noundef i32 @_ZN2cv11bioinspired14TemplateBufferIfE9getNBrowsEv(ptr noundef nonnull align 8 dereferenceable(64) %80)
  %82 = sub i32 %81, 1
  %83 = icmp ult i32 %78, %82
  br i1 %83, label %85, label %84

84:                                               ; preds = %77
  store i32 11, ptr %6, align 4
  call void @llvm.lifetime.end.p0(i64 4, ptr %10) #3
  br label %126

85:                                               ; preds = %77
  call void @llvm.lifetime.start.p0(i64 4, ptr %11) #3
  %86 = load i32, ptr %9, align 4, !tbaa !8
  %87 = load i32, ptr %10, align 4, !tbaa !8
  %88 = getelementptr inbounds i8, ptr %12, i64 8
  %89 = getelementptr inbounds nuw %"class.cv::bioinspired::BasicRetinaFilter", ptr %88, i32 0, i32 0
  %90 = call noundef i32 @_ZN2cv11bioinspired14TemplateBufferIfE12getNBcolumnsEv(ptr noundef nonnull align 8 dereferenceable(64) %89)
  %91 = mul i32 %87, %90
  %92 = add i32 %86, %91
  store i32 %92, ptr %11, align 4, !tbaa !8
  %93 = load ptr, ptr %4, align 8, !tbaa !39
  %94 = load i32, ptr %11, align 4, !tbaa !8
  %95 = getelementptr inbounds i8, ptr %12, i64 8
  %96 = getelementptr inbounds nuw %"class.cv::bioinspired::BasicRetinaFilter", ptr %95, i32 0, i32 0
  %97 = call noundef i32 @_ZN2cv11bioinspired14TemplateBufferIfE12getNBcolumnsEv(ptr noundef nonnull align 8 dereferenceable(64) %96)
  %98 = sub i32 %94, %97
  %99 = zext i32 %98 to i64
  %100 = getelementptr inbounds nuw float, ptr %93, i64 %99
  %101 = load float, ptr %100, align 4, !tbaa !30
  %102 = load ptr, ptr %4, align 8, !tbaa !39
  %103 = load i32, ptr %11, align 4, !tbaa !8
  %104 = zext i32 %103 to i64
  %105 = getelementptr inbounds nuw float, ptr %102, i64 %104
  %106 = load float, ptr %105, align 4, !tbaa !30
  %107 = fadd float %101, %106
  %108 = load ptr, ptr %4, align 8, !tbaa !39
  %109 = load i32, ptr %11, align 4, !tbaa !8
  %110 = getelementptr inbounds i8, ptr %12, i64 8
  %111 = getelementptr inbounds nuw %"class.cv::bioinspired::BasicRetinaFilter", ptr %110, i32 0, i32 0
  %112 = call noundef i32 @_ZN2cv11bioinspired14TemplateBufferIfE12getNBcolumnsEv(ptr noundef nonnull align 8 dereferenceable(64) %111)
  %113 = add i32 %109, %112
  %114 = zext i32 %113 to i64
  %115 = getelementptr inbounds nuw float, ptr %108, i64 %114
  %116 = load float, ptr %115, align 4, !tbaa !30
  %117 = fadd float %107, %116
  %118 = fdiv float %117, 3.000000e+00
  %119 = load ptr, ptr %4, align 8, !tbaa !39
  %120 = load i32, ptr %11, align 4, !tbaa !8
  %121 = zext i32 %120 to i64
  %122 = getelementptr inbounds nuw float, ptr %119, i64 %121
  store float %118, ptr %122, align 4, !tbaa !30
  call void @llvm.lifetime.end.p0(i64 4, ptr %11) #3
  br label %123

123:                                              ; preds = %85
  %124 = load i32, ptr %10, align 4, !tbaa !8
  %125 = add i32 %124, 1
  store i32 %125, ptr %10, align 4, !tbaa !8
  br label %77, !llvm.loop !101

126:                                              ; preds = %84
  br label %127

127:                                              ; preds = %126
  %128 = load i32, ptr %9, align 4, !tbaa !8
  %129 = add i32 %128, 1
  store i32 %129, ptr %9, align 4, !tbaa !8
  br label %69, !llvm.loop !102

130:                                              ; preds = %75
  ret void
}

; Function Attrs: mustprogress uwtable
define hidden void @_ZN2cv11bioinspired11RetinaColor35_interpolateImageDemultiplexedImageEPf(ptr noundef nonnull align 8 dereferenceable(349) %0, ptr noundef %1) #4 align 2 {
  %3 = alloca ptr, align 8
  %4 = alloca ptr, align 8
  store ptr %0, ptr %3, align 8, !tbaa !3
  store ptr %1, ptr %4, align 8, !tbaa !39
  %5 = load ptr, ptr %3, align 8
  %6 = getelementptr inbounds nuw %"class.cv::bioinspired::RetinaColor", ptr %5, i32 0, i32 2
  %7 = load i32, ptr %6, align 8, !tbaa !27
  switch i32 %7, label %13 [
    i32 0, label %8
    i32 1, label %9
    i32 2, label %11
  ]

8:                                                ; preds = %2
  br label %16

9:                                                ; preds = %2
  %10 = load ptr, ptr %4, align 8, !tbaa !39
  call void @_ZN2cv11bioinspired11RetinaColor33_interpolateSingleChannelImage111EPf(ptr noundef nonnull align 8 dereferenceable(349) %5, ptr noundef %10)
  br label %16

11:                                               ; preds = %2
  %12 = load ptr, ptr %4, align 8, !tbaa !39
  call void @_ZN2cv11bioinspired11RetinaColor28_interpolateBayerRGBchannelsEPf(ptr noundef nonnull align 8 dereferenceable(349) %5, ptr noundef %12)
  br label %16

13:                                               ; preds = %2
  %14 = call noundef nonnull align 8 dereferenceable(8) ptr @_ZStlsISt11char_traitsIcEERSt13basic_ostreamIcT_ES5_PKc(ptr noundef nonnull align 8 dereferenceable(8) @_ZSt4cerr, ptr noundef @.str.2)
  %15 = call noundef nonnull align 8 dereferenceable(8) ptr @_ZNSolsEPFRSoS_E(ptr noundef nonnull align 8 dereferenceable(8) %14, ptr noundef @_ZSt4endlIcSt11char_traitsIcEERSt13basic_ostreamIT_T0_ES6_)
  br label %16

16:                                               ; preds = %8, %13, %11, %9
  ret void
}