; Function Attrs: mustprogress uwtable
define hidden void @_ZN2cv11bioinspired11RetinaColor35_interpolateImageDemultiplexedImageEPf(ptr noundef nonnull readonly align 8 captures(none) dereferenceable(349) %0, ptr noundef captures(none) %1) local_unnamed_addr #3 align 2 {
  %3 = getelementptr inbounds nuw i8, ptr %0, i64 176
  %4 = load i32, ptr %3, align 8, !tbaa !28
  switch i32 %4, label %74 [
    i32 0, label %_ZN2cv11bioinspired11RetinaColor33_interpolateSingleChannelImage111EPf.exit
    i32 1, label %5
    i32 2, label %73
  ]

5:                                                ; preds = %2
  %6 = getelementptr inbounds nuw i8, ptr %0, i64 32
  %7 = load i64, ptr %6, align 8, !tbaa !150
  %8 = trunc i64 %7 to i32
  %.not.i = icmp eq i32 %8, 0
  %.phi.trans.insert.i = getelementptr inbounds nuw i8, ptr %0, i64 40
  %.pre.i = load i64, ptr %.phi.trans.insert.i, align 8, !tbaa !62
  %.pre50.i = trunc i64 %.pre.i to i32
  br i1 %.not.i, label %.preheader31.i, label %.preheader32.lr.ph.i

.preheader32.lr.ph.i:                             ; preds = %5
  %9 = add i32 %.pre50.i, -1
  %10 = icmp ugt i32 %9, 1
  br i1 %10, label %.preheader32.us.preheader.i, label %.preheader.lr.ph.i

.preheader32.us.preheader.i:                      ; preds = %.preheader32.lr.ph.i
  %wide.trip.count.i = zext i32 %9 to i64
  br label %.preheader32.us.i

.preheader32.us.i:                                ; preds = %._crit_edge.us.i, %.preheader32.us.preheader.i
  %.034.us.i = phi i32 [ %29, %._crit_edge.us.i ], [ 0, %.preheader32.us.preheader.i ]
  %11 = mul i32 %.034.us.i, %.pre50.i
  br label %12

12:                                               ; preds = %12, %.preheader32.us.i
  %indvars.iv.i = phi i64 [ 1, %.preheader32.us.i ], [ %indvars.iv.next.i, %12 ]
  %13 = trunc nuw i64 %indvars.iv.i to i32
  %14 = add i32 %11, %13
  %15 = add i32 %14, -1
  %16 = zext i32 %15 to i64
  %17 = getelementptr inbounds nuw float, ptr %1, i64 %16
  %18 = load float, ptr %17, align 4, !tbaa !31
  %19 = zext i32 %14 to i64
  %20 = getelementptr inbounds nuw float, ptr %1, i64 %19
  %21 = load float, ptr %20, align 4, !tbaa !31
  %22 = fadd float %18, %21
  %23 = add i32 %14, 1
  %24 = zext i32 %23 to i64
  %25 = getelementptr inbounds nuw float, ptr %1, i64 %24
  %26 = load float, ptr %25, align 4, !tbaa !31
  %27 = fadd float %22, %26
  %28 = fdiv float %27, 3.000000e+00
  store float %28, ptr %20, align 4, !tbaa !31
  %indvars.iv.next.i = add nuw nsw i64 %indvars.iv.i, 1
  %exitcond.not.i = icmp eq i64 %indvars.iv.next.i, %wide.trip.count.i
  br i1 %exitcond.not.i, label %._crit_edge.us.i, label %12, !llvm.loop !176

._crit_edge.us.i:                                 ; preds = %12
  %29 = add nuw i32 %.034.us.i, 1
  %exitcond43.not.i = icmp eq i32 %29, %8
  br i1 %exitcond43.not.i, label %.preheader31.i, label %.preheader32.us.i, !llvm.loop !177

.preheader31.i:                                   ; preds = %._crit_edge.us.i, %5
  %.not39.i = icmp eq i32 %.pre50.i, 0
  br i1 %.not39.i, label %_ZN2cv11bioinspired11RetinaColor33_interpolateSingleChannelImage111EPf.exit, label %.preheader.lr.ph.i

.preheader.lr.ph.i:                               ; preds = %.preheader31.i, %.preheader32.lr.ph.i
  %30 = add i32 %8, -1
  %31 = icmp ugt i32 %30, 1
  br i1 %31, label %.preheader.us.preheader.i, label %_ZN2cv11bioinspired11RetinaColor33_interpolateSingleChannelImage111EPf.exit

.preheader.us.preheader.i:                        ; preds = %.preheader.lr.ph.i
  %wide.trip.count47.i = zext i32 %30 to i64
  %32 = add nsw i64 %wide.trip.count47.i, -2
  %ident.check = icmp ne i64 %.pre.i, 1
  %33 = trunc i64 %32 to i32
  %34 = icmp ugt i64 %32, 4294967295
  %35 = trunc i64 %32 to i32
  %invariant.op5 = or i1 %34, %ident.check
  br label %.lver.check

.lver.check:                                      ; preds = %._crit_edge.us38.i, %.preheader.us.preheader.i
  %indvar = phi i64 [ %indvar.next, %._crit_edge.us38.i ], [ 0, %.preheader.us.preheader.i ]
  %.02936.us.i = phi i32 [ %72, %._crit_edge.us38.i ], [ 0, %.preheader.us.preheader.i ]
  %36 = sub i32 -2, %.02936.us.i
  %37 = icmp ult i32 %36, %33
  %38 = sub i32 -3, %.02936.us.i
  %39 = icmp ult i32 %38, %35
  %.reass6 = or i1 %37, %invariant.op5
  %40 = or i1 %39, %.reass6
  br i1 %40, label %.ph.lver.orig, label %.ph

.ph.lver.orig:                                    ; preds = %.lver.check, %.ph.lver.orig
  %indvars.iv44.i.lver.orig = phi i64 [ %indvars.iv.next45.i.lver.orig, %.ph.lver.orig ], [ 1, %.lver.check ]
  %41 = trunc nuw i64 %indvars.iv44.i.lver.orig to i32
  %42 = mul i32 %41, %.pre50.i
  %43 = add i32 %42, %.02936.us.i
  %44 = sub i32 %43, %.pre50.i
  %45 = zext i32 %44 to i64
  %46 = getelementptr inbounds nuw float, ptr %1, i64 %45
  %47 = load float, ptr %46, align 4, !tbaa !31
  %48 = zext i32 %43 to i64
  %49 = getelementptr inbounds nuw float, ptr %1, i64 %48
  %50 = load float, ptr %49, align 4, !tbaa !31
  %51 = fadd float %47, %50
  %52 = add i32 %43, %.pre50.i
  %53 = zext i32 %52 to i64
  %54 = getelementptr inbounds nuw float, ptr %1, i64 %53
  %55 = load float, ptr %54, align 4, !tbaa !31
  %56 = fadd float %51, %55
  %57 = fdiv float %56, 3.000000e+00
  store float %57, ptr %49, align 4, !tbaa !31
  %indvars.iv.next45.i.lver.orig = add nuw nsw i64 %indvars.iv44.i.lver.orig, 1
  %exitcond48.not.i.lver.orig = icmp eq i64 %indvars.iv.next45.i.lver.orig, %wide.trip.count47.i
  br i1 %exitcond48.not.i.lver.orig, label %._crit_edge.us38.i, label %.ph.lver.orig, !llvm.loop !178

.ph:                                              ; preds = %.lver.check
  %58 = shl nuw nsw i64 %indvar, 2
  %scevgep = getelementptr i8, ptr %1, i64 %58
  %load_initial = load float, ptr %scevgep, align 4
  %invariant.op = add i32 %.02936.us.i, %.pre50.i
  br label %59

59:                                               ; preds = %59, %.ph
  %store_forwarded = phi float [ %load_initial, %.ph ], [ %71, %59 ]
  %indvars.iv44.i = phi i64 [ 1, %.ph ], [ %indvars.iv.next45.i, %59 ]
  %60 = trunc nuw i64 %indvars.iv44.i to i32
  %61 = mul nuw i32 %60, %.pre50.i
  %62 = add i32 %61, %.02936.us.i
  %63 = zext i32 %62 to i64
  %64 = getelementptr inbounds nuw float, ptr %1, i64 %63
  %65 = load float, ptr %64, align 4, !tbaa !31
  %66 = fadd float %store_forwarded, %65
  %.reass = add i32 %61, %invariant.op
  %67 = zext i32 %.reass to i64
  %68 = getelementptr inbounds nuw float, ptr %1, i64 %67
  %69 = load float, ptr %68, align 4, !tbaa !31
  %70 = fadd float %66, %69
  %71 = fdiv float %70, 3.000000e+00
  store float %71, ptr %64, align 4, !tbaa !31
  %indvars.iv.next45.i = add nuw nsw i64 %indvars.iv44.i, 1
  %exitcond48.not.i = icmp eq i64 %indvars.iv.next45.i, %wide.trip.count47.i
  br i1 %exitcond48.not.i, label %._crit_edge.us38.i, label %59, !llvm.loop !178

._crit_edge.us38.i:                               ; preds = %59, %.ph.lver.orig
  %72 = add nuw i32 %.02936.us.i, 1
  %exitcond49.not.i = icmp eq i32 %72, %.pre50.i
  %indvar.next = add i64 %indvar, 1
  br i1 %exitcond49.not.i, label %_ZN2cv11bioinspired11RetinaColor33_interpolateSingleChannelImage111EPf.exit, label %.lver.check, !llvm.loop !179

73:                                               ; preds = %2
  tail call void @_ZN2cv11bioinspired11RetinaColor28_interpolateBayerRGBchannelsEPf(ptr noundef nonnull align 8 dereferenceable(349) %0, ptr noundef %1)
  br label %_ZN2cv11bioinspired11RetinaColor33_interpolateSingleChannelImage111EPf.exit

74:                                               ; preds = %2
  %75 = tail call noundef nonnull align 8 dereferenceable(8) ptr @_ZSt16__ostream_insertIcSt11char_traitsIcEERSt13basic_ostreamIT_T0_ES6_PKS3_l(ptr noundef nonnull align 8 dereferenceable(8) @_ZSt4cerr, ptr noundef nonnull @.str.2, i64 noundef 56)
  %76 = load ptr, ptr @_ZSt4cerr, align 8, !tbaa !3
  %77 = getelementptr i8, ptr %76, i64 -24
  %78 = load i64, ptr %77, align 8
  %79 = getelementptr inbounds i8, ptr @_ZSt4cerr, i64 %78
  %80 = getelementptr inbounds nuw i8, ptr %79, i64 240
  %81 = load ptr, ptr %80, align 8, !tbaa !63
  %.not.i.i.i = icmp eq ptr %81, null
  br i1 %.not.i.i.i, label %82, label %_ZSt13__check_facetISt5ctypeIcEERKT_PS3_.exit.i.i

82:                                               ; preds = %74
  tail call void @_ZSt16__throw_bad_castv() #20
  unreachable

_ZSt13__check_facetISt5ctypeIcEERKT_PS3_.exit.i.i: ; preds = %74
  %83 = getelementptr inbounds nuw i8, ptr %81, i64 56
  %84 = load i8, ptr %83, align 8, !tbaa !78
  %.not.i1.i.i = icmp eq i8 %84, 0
  br i1 %.not.i1.i.i, label %88, label %85

85:                                               ; preds = %_ZSt13__check_facetISt5ctypeIcEERKT_PS3_.exit.i.i
  %86 = getelementptr inbounds nuw i8, ptr %81, i64 67
  %87 = load i8, ptr %86, align 1, !tbaa !83
  br label %_ZSt4endlIcSt11char_traitsIcEERSt13basic_ostreamIT_T0_ES6_.exit

88:                                               ; preds = %_ZSt13__check_facetISt5ctypeIcEERKT_PS3_.exit.i.i
  tail call void @_ZNKSt5ctypeIcE13_M_widen_initEv(ptr noundef nonnull align 8 dereferenceable(570) %81)
  %89 = load ptr, ptr %81, align 8, !tbaa !3
  %90 = getelementptr inbounds nuw i8, ptr %89, i64 48
  %91 = load ptr, ptr %90, align 8
  %92 = tail call noundef signext i8 %91(ptr noundef nonnull align 8 dereferenceable(570) %81, i8 noundef signext 10)
  br label %_ZSt4endlIcSt11char_traitsIcEERSt13basic_ostreamIT_T0_ES6_.exit

_ZSt4endlIcSt11char_traitsIcEERSt13basic_ostreamIT_T0_ES6_.exit: ; preds = %85, %88
  %.0.i.i.i = phi i8 [ %87, %85 ], [ %92, %88 ]
  %93 = tail call noundef nonnull align 8 dereferenceable(8) ptr @_ZNSo3putEc(ptr noundef nonnull align 8 dereferenceable(8) @_ZSt4cerr, i8 noundef signext %.0.i.i.i)
  %94 = tail call noundef nonnull align 8 dereferenceable(8) ptr @_ZNSo5flushEv(ptr noundef nonnull align 8 dereferenceable(8) %93)
  br label %_ZN2cv11bioinspired11RetinaColor33_interpolateSingleChannelImage111EPf.exit

_ZN2cv11bioinspired11RetinaColor33_interpolateSingleChannelImage111EPf.exit: ; preds = %._crit_edge.us38.i, %.preheader.lr.ph.i, %.preheader31.i, %2, %_ZSt4endlIcSt11char_traitsIcEERSt13basic_ostreamIT_T0_ES6_.exit, %73
  ret void
}